
server:     file format elf64-x86-64


Disassembly of section .init:

0000000000001000 <_init>:
    1000:	f3 0f 1e fa          	endbr64
    1004:	48 83 ec 08          	sub    $0x8,%rsp
    1008:	48 8b 05 c1 2f 00 00 	mov    0x2fc1(%rip),%rax        # 3fd0 <__gmon_start__@Base>
    100f:	48 85 c0             	test   %rax,%rax
    1012:	74 02                	je     1016 <_init+0x16>
    1014:	ff d0                	call   *%rax
    1016:	48 83 c4 08          	add    $0x8,%rsp
    101a:	c3                   	ret

Disassembly of section .plt:

0000000000001020 <write@plt-0x10>:
    1020:	ff 35 ca 2f 00 00    	push   0x2fca(%rip)        # 3ff0 <_GLOBAL_OFFSET_TABLE_+0x8>
    1026:	ff 25 cc 2f 00 00    	jmp    *0x2fcc(%rip)        # 3ff8 <_GLOBAL_OFFSET_TABLE_+0x10>
    102c:	0f 1f 40 00          	nopl   0x0(%rax)

0000000000001030 <write@plt>:
    1030:	ff 25 ca 2f 00 00    	jmp    *0x2fca(%rip)        # 4000 <write@GLIBC_2.2.5>
    1036:	68 00 00 00 00       	push   $0x0
    103b:	e9 e0 ff ff ff       	jmp    1020 <_init+0x20>

0000000000001040 <ctime@plt>:
    1040:	ff 25 c2 2f 00 00    	jmp    *0x2fc2(%rip)        # 4008 <ctime@GLIBC_2.2.5>
    1046:	68 01 00 00 00       	push   $0x1
    104b:	e9 d0 ff ff ff       	jmp    1020 <_init+0x20>

0000000000001050 <strlen@plt>:
    1050:	ff 25 ba 2f 00 00    	jmp    *0x2fba(%rip)        # 4010 <strlen@GLIBC_2.2.5>
    1056:	68 02 00 00 00       	push   $0x2
    105b:	e9 c0 ff ff ff       	jmp    1020 <_init+0x20>

0000000000001060 <htons@plt>:
    1060:	ff 25 b2 2f 00 00    	jmp    *0x2fb2(%rip)        # 4018 <htons@GLIBC_2.2.5>
    1066:	68 03 00 00 00       	push   $0x3
    106b:	e9 b0 ff ff ff       	jmp    1020 <_init+0x20>

0000000000001070 <snprintf@plt>:
    1070:	ff 25 aa 2f 00 00    	jmp    *0x2faa(%rip)        # 4020 <snprintf@GLIBC_2.2.5>
    1076:	68 04 00 00 00       	push   $0x4
    107b:	e9 a0 ff ff ff       	jmp    1020 <_init+0x20>

0000000000001080 <htonl@plt>:
    1080:	ff 25 a2 2f 00 00    	jmp    *0x2fa2(%rip)        # 4028 <htonl@GLIBC_2.2.5>
    1086:	68 05 00 00 00       	push   $0x5
    108b:	e9 90 ff ff ff       	jmp    1020 <_init+0x20>

0000000000001090 <memset@plt>:
    1090:	ff 25 9a 2f 00 00    	jmp    *0x2f9a(%rip)        # 4030 <memset@GLIBC_2.2.5>
    1096:	68 06 00 00 00       	push   $0x6
    109b:	e9 80 ff ff ff       	jmp    1020 <_init+0x20>

00000000000010a0 <close@plt>:
    10a0:	ff 25 92 2f 00 00    	jmp    *0x2f92(%rip)        # 4038 <close@GLIBC_2.2.5>
    10a6:	68 07 00 00 00       	push   $0x7
    10ab:	e9 70 ff ff ff       	jmp    1020 <_init+0x20>

00000000000010b0 <time@plt>:
    10b0:	ff 25 8a 2f 00 00    	jmp    *0x2f8a(%rip)        # 4040 <time@GLIBC_2.2.5>
    10b6:	68 08 00 00 00       	push   $0x8
    10bb:	e9 60 ff ff ff       	jmp    1020 <_init+0x20>

00000000000010c0 <listen@plt>:
    10c0:	ff 25 82 2f 00 00    	jmp    *0x2f82(%rip)        # 4048 <listen@GLIBC_2.2.5>
    10c6:	68 09 00 00 00       	push   $0x9
    10cb:	e9 50 ff ff ff       	jmp    1020 <_init+0x20>

00000000000010d0 <bind@plt>:
    10d0:	ff 25 7a 2f 00 00    	jmp    *0x2f7a(%rip)        # 4050 <bind@GLIBC_2.2.5>
    10d6:	68 0a 00 00 00       	push   $0xa
    10db:	e9 40 ff ff ff       	jmp    1020 <_init+0x20>

00000000000010e0 <accept@plt>:
    10e0:	ff 25 72 2f 00 00    	jmp    *0x2f72(%rip)        # 4058 <accept@GLIBC_2.2.5>
    10e6:	68 0b 00 00 00       	push   $0xb
    10eb:	e9 30 ff ff ff       	jmp    1020 <_init+0x20>

00000000000010f0 <sleep@plt>:
    10f0:	ff 25 6a 2f 00 00    	jmp    *0x2f6a(%rip)        # 4060 <sleep@GLIBC_2.2.5>
    10f6:	68 0c 00 00 00       	push   $0xc
    10fb:	e9 20 ff ff ff       	jmp    1020 <_init+0x20>

0000000000001100 <socket@plt>:
    1100:	ff 25 62 2f 00 00    	jmp    *0x2f62(%rip)        # 4068 <socket@GLIBC_2.2.5>
    1106:	68 0d 00 00 00       	push   $0xd
    110b:	e9 10 ff ff ff       	jmp    1020 <_init+0x20>

Disassembly of section .plt.got:

0000000000001110 <__cxa_finalize@plt>:
    1110:	ff 25 ca 2e 00 00    	jmp    *0x2eca(%rip)        # 3fe0 <__cxa_finalize@GLIBC_2.2.5>
    1116:	66 90                	xchg   %ax,%ax

Disassembly of section .text:

0000000000001120 <_start>:
    1120:	f3 0f 1e fa          	endbr64
    1124:	31 ed                	xor    %ebp,%ebp
    1126:	49 89 d1             	mov    %rdx,%r9
    1129:	5e                   	pop    %rsi
    112a:	48 89 e2             	mov    %rsp,%rdx
    112d:	48 83 e4 f0          	and    $0xfffffffffffffff0,%rsp
    1131:	50                   	push   %rax
    1132:	54                   	push   %rsp
    1133:	45 31 c0             	xor    %r8d,%r8d
    1136:	31 c9                	xor    %ecx,%ecx
    1138:	48 8d 3d d1 00 00 00 	lea    0xd1(%rip),%rdi        # 1210 <main>
    113f:	ff 15 7b 2e 00 00    	call   *0x2e7b(%rip)        # 3fc0 <__libc_start_main@GLIBC_2.34>
    1145:	f4                   	hlt
    1146:	66 2e 0f 1f 84 00 00 	cs nopw 0x0(%rax,%rax,1)
    114d:	00 00 00 

0000000000001150 <deregister_tm_clones>:
    1150:	48 8d 3d 29 2f 00 00 	lea    0x2f29(%rip),%rdi        # 4080 <__TMC_END__>
    1157:	48 8d 05 22 2f 00 00 	lea    0x2f22(%rip),%rax        # 4080 <__TMC_END__>
    115e:	48 39 f8             	cmp    %rdi,%rax
    1161:	74 15                	je     1178 <deregister_tm_clones+0x28>
    1163:	48 8b 05 5e 2e 00 00 	mov    0x2e5e(%rip),%rax        # 3fc8 <_ITM_deregisterTMCloneTable@Base>
    116a:	48 85 c0             	test   %rax,%rax
    116d:	74 09                	je     1178 <deregister_tm_clones+0x28>
    116f:	ff e0                	jmp    *%rax
    1171:	0f 1f 80 00 00 00 00 	nopl   0x0(%rax)
    1178:	c3                   	ret
    1179:	0f 1f 80 00 00 00 00 	nopl   0x0(%rax)

0000000000001180 <register_tm_clones>:
    1180:	48 8d 3d f9 2e 00 00 	lea    0x2ef9(%rip),%rdi        # 4080 <__TMC_END__>
    1187:	48 8d 35 f2 2e 00 00 	lea    0x2ef2(%rip),%rsi        # 4080 <__TMC_END__>
    118e:	48 29 fe             	sub    %rdi,%rsi
    1191:	48 89 f0             	mov    %rsi,%rax
    1194:	48 c1 ee 3f          	shr    $0x3f,%rsi
    1198:	48 c1 f8 03          	sar    $0x3,%rax
    119c:	48 01 c6             	add    %rax,%rsi
    119f:	48 d1 fe             	sar    $1,%rsi
    11a2:	74 14                	je     11b8 <register_tm_clones+0x38>
    11a4:	48 8b 05 2d 2e 00 00 	mov    0x2e2d(%rip),%rax        # 3fd8 <_ITM_registerTMCloneTable@Base>
    11ab:	48 85 c0             	test   %rax,%rax
    11ae:	74 08                	je     11b8 <register_tm_clones+0x38>
    11b0:	ff e0                	jmp    *%rax
    11b2:	66 0f 1f 44 00 00    	nopw   0x0(%rax,%rax,1)
    11b8:	c3                   	ret
    11b9:	0f 1f 80 00 00 00 00 	nopl   0x0(%rax)

00000000000011c0 <__do_global_dtors_aux>:
    11c0:	f3 0f 1e fa          	endbr64
    11c4:	80 3d b5 2e 00 00 00 	cmpb   $0x0,0x2eb5(%rip)        # 4080 <__TMC_END__>
    11cb:	75 2b                	jne    11f8 <__do_global_dtors_aux+0x38>
    11cd:	55                   	push   %rbp
    11ce:	48 83 3d 0a 2e 00 00 	cmpq   $0x0,0x2e0a(%rip)        # 3fe0 <__cxa_finalize@GLIBC_2.2.5>
    11d5:	00 
    11d6:	48 89 e5             	mov    %rsp,%rbp
    11d9:	74 0c                	je     11e7 <__do_global_dtors_aux+0x27>
    11db:	48 8b 3d 96 2e 00 00 	mov    0x2e96(%rip),%rdi        # 4078 <__dso_handle>
    11e2:	e8 29 ff ff ff       	call   1110 <__cxa_finalize@plt>
    11e7:	e8 64 ff ff ff       	call   1150 <deregister_tm_clones>
    11ec:	c6 05 8d 2e 00 00 01 	movb   $0x1,0x2e8d(%rip)        # 4080 <__TMC_END__>
    11f3:	5d                   	pop    %rbp
    11f4:	c3                   	ret
    11f5:	0f 1f 00             	nopl   (%rax)
    11f8:	c3                   	ret
    11f9:	0f 1f 80 00 00 00 00 	nopl   0x0(%rax)

0000000000001200 <frame_dummy>:
    1200:	f3 0f 1e fa          	endbr64
    1204:	e9 77 ff ff ff       	jmp    1180 <register_tm_clones>
    1209:	0f 1f 80 00 00 00 00 	nopl   0x0(%rax)

0000000000001210 <main>:
    1210:	55                   	push   %rbp
    1211:	48 89 e5             	mov    %rsp,%rbp
    1214:	48 81 ec 50 04 00 00 	sub    $0x450,%rsp
    121b:	c7 45 fc 00 00 00 00 	movl   $0x0,-0x4(%rbp)
    1222:	89 7d f8             	mov    %edi,-0x8(%rbp)
    1225:	48 89 75 f0          	mov    %rsi,-0x10(%rbp)
    1229:	c7 45 ec 00 00 00 00 	movl   $0x0,-0x14(%rbp)
    1230:	c7 45 e8 00 00 00 00 	movl   $0x0,-0x18(%rbp)
    1237:	bf 02 00 00 00       	mov    $0x2,%edi
    123c:	be 01 00 00 00       	mov    $0x1,%esi
    1241:	31 d2                	xor    %edx,%edx
    1243:	e8 b8 fe ff ff       	call   1100 <socket@plt>
    1248:	89 45 ec             	mov    %eax,-0x14(%rbp)
    124b:	48 8d 7d d8          	lea    -0x28(%rbp),%rdi
    124f:	be 30 00 00 00       	mov    $0x30,%esi
    1254:	ba 10 00 00 00       	mov    $0x10,%edx
    1259:	e8 32 fe ff ff       	call   1090 <memset@plt>
    125e:	48 8d bd d0 fb ff ff 	lea    -0x430(%rbp),%rdi
    1265:	be 30 00 00 00       	mov    $0x30,%esi
    126a:	ba 01 04 00 00       	mov    $0x401,%edx
    126f:	e8 1c fe ff ff       	call   1090 <memset@plt>
    1274:	66 c7 45 d8 02 00    	movw   $0x2,-0x28(%rbp)
    127a:	31 ff                	xor    %edi,%edi
    127c:	e8 ff fd ff ff       	call   1080 <htonl@plt>
    1281:	89 45 dc             	mov    %eax,-0x24(%rbp)
    1284:	bf 88 13 00 00       	mov    $0x1388,%edi
    1289:	e8 d2 fd ff ff       	call   1060 <htons@plt>
    128e:	66 89 45 da          	mov    %ax,-0x26(%rbp)
    1292:	8b 7d ec             	mov    -0x14(%rbp),%edi
    1295:	48 8d 75 d8          	lea    -0x28(%rbp),%rsi
    1299:	ba 10 00 00 00       	mov    $0x10,%edx
    129e:	e8 2d fe ff ff       	call   10d0 <bind@plt>
    12a3:	8b 7d ec             	mov    -0x14(%rbp),%edi
    12a6:	be 0a 00 00 00       	mov    $0xa,%esi
    12ab:	e8 10 fe ff ff       	call   10c0 <listen@plt>
    12b0:	8b 7d ec             	mov    -0x14(%rbp),%edi
    12b3:	31 c0                	xor    %eax,%eax
    12b5:	89 c2                	mov    %eax,%edx
    12b7:	48 89 d6             	mov    %rdx,%rsi
    12ba:	e8 21 fe ff ff       	call   10e0 <accept@plt>
    12bf:	89 45 e8             	mov    %eax,-0x18(%rbp)
    12c2:	31 c0                	xor    %eax,%eax
    12c4:	89 c7                	mov    %eax,%edi
    12c6:	e8 e5 fd ff ff       	call   10b0 <time@plt>
    12cb:	48 89 85 c8 fb ff ff 	mov    %rax,-0x438(%rbp)
    12d2:	48 8d 85 d0 fb ff ff 	lea    -0x430(%rbp),%rax
    12d9:	48 89 85 b0 fb ff ff 	mov    %rax,-0x450(%rbp)
    12e0:	48 8d bd c8 fb ff ff 	lea    -0x438(%rbp),%rdi
    12e7:	e8 54 fd ff ff       	call   1040 <ctime@plt>
    12ec:	48 8b bd b0 fb ff ff 	mov    -0x450(%rbp),%rdi
    12f3:	48 89 c1             	mov    %rax,%rcx
    12f6:	be 01 04 00 00       	mov    $0x401,%esi
    12fb:	48 8d 15 02 0d 00 00 	lea    0xd02(%rip),%rdx        # 2004 <_IO_stdin_used+0x4>
    1302:	b0 00                	mov    $0x0,%al
    1304:	e8 67 fd ff ff       	call   1070 <snprintf@plt>
    1309:	8b 45 e8             	mov    -0x18(%rbp),%eax
    130c:	89 85 bc fb ff ff    	mov    %eax,-0x444(%rbp)
    1312:	48 8d 85 d0 fb ff ff 	lea    -0x430(%rbp),%rax
    1319:	48 89 85 c0 fb ff ff 	mov    %rax,-0x440(%rbp)
    1320:	48 8d bd d0 fb ff ff 	lea    -0x430(%rbp),%rdi
    1327:	e8 24 fd ff ff       	call   1050 <strlen@plt>
    132c:	8b bd bc fb ff ff    	mov    -0x444(%rbp),%edi
    1332:	48 8b b5 c0 fb ff ff 	mov    -0x440(%rbp),%rsi
    1339:	48 89 c2             	mov    %rax,%rdx
    133c:	e8 ef fc ff ff       	call   1030 <write@plt>
    1341:	8b 7d e8             	mov    -0x18(%rbp),%edi
    1344:	e8 57 fd ff ff       	call   10a0 <close@plt>
    1349:	bf 01 00 00 00       	mov    $0x1,%edi
    134e:	e8 9d fd ff ff       	call   10f0 <sleep@plt>
    1353:	e9 58 ff ff ff       	jmp    12b0 <main+0xa0>

Disassembly of section .fini:

0000000000001358 <_fini>:
    1358:	f3 0f 1e fa          	endbr64
    135c:	48 83 ec 08          	sub    $0x8,%rsp
    1360:	48 83 c4 08          	add    $0x8,%rsp
    1364:	c3                   	ret
