
wc:     file format elf64-x86-64


Disassembly of section .init:

0000000000001000 <_init>:
    1000:	f3 0f 1e fa          	endbr64 
    1004:	48 83 ec 08          	sub    $0x8,%rsp
    1008:	48 8b 05 d9 2f 00 00 	mov    0x2fd9(%rip),%rax        # 3fe8 <__gmon_start__@Base>
    100f:	48 85 c0             	test   %rax,%rax
    1012:	74 02                	je     1016 <_init+0x16>
    1014:	ff d0                	call   *%rax
    1016:	48 83 c4 08          	add    $0x8,%rsp
    101a:	c3                   	ret    

Disassembly of section .plt:

0000000000001020 <fclose@plt-0x10>:
    1020:	ff 35 e2 2f 00 00    	push   0x2fe2(%rip)        # 4008 <_GLOBAL_OFFSET_TABLE_+0x8>
    1026:	ff 25 e4 2f 00 00    	jmp    *0x2fe4(%rip)        # 4010 <_GLOBAL_OFFSET_TABLE_+0x10>
    102c:	0f 1f 40 00          	nopl   0x0(%rax)

0000000000001030 <fclose@plt>:
    1030:	ff 25 e2 2f 00 00    	jmp    *0x2fe2(%rip)        # 4018 <fclose@GLIBC_2.2.5>
    1036:	68 00 00 00 00       	push   $0x0
    103b:	e9 e0 ff ff ff       	jmp    1020 <_init+0x20>

0000000000001040 <printf@plt>:
    1040:	ff 25 da 2f 00 00    	jmp    *0x2fda(%rip)        # 4020 <printf@GLIBC_2.2.5>
    1046:	68 01 00 00 00       	push   $0x1
    104b:	e9 d0 ff ff ff       	jmp    1020 <_init+0x20>

0000000000001050 <feof@plt>:
    1050:	ff 25 d2 2f 00 00    	jmp    *0x2fd2(%rip)        # 4028 <feof@GLIBC_2.2.5>
    1056:	68 02 00 00 00       	push   $0x2
    105b:	e9 c0 ff ff ff       	jmp    1020 <_init+0x20>

0000000000001060 <fopen@plt>:
    1060:	ff 25 ca 2f 00 00    	jmp    *0x2fca(%rip)        # 4030 <fopen@GLIBC_2.2.5>
    1066:	68 03 00 00 00       	push   $0x3
    106b:	e9 b0 ff ff ff       	jmp    1020 <_init+0x20>

0000000000001070 <getc@plt>:
    1070:	ff 25 c2 2f 00 00    	jmp    *0x2fc2(%rip)        # 4038 <getc@GLIBC_2.2.5>
    1076:	68 04 00 00 00       	push   $0x4
    107b:	e9 a0 ff ff ff       	jmp    1020 <_init+0x20>

0000000000001080 <__ctype_b_loc@plt>:
    1080:	ff 25 ba 2f 00 00    	jmp    *0x2fba(%rip)        # 4040 <__ctype_b_loc@GLIBC_2.3>
    1086:	68 05 00 00 00       	push   $0x5
    108b:	e9 90 ff ff ff       	jmp    1020 <_init+0x20>

Disassembly of section .plt.got:

0000000000001090 <__cxa_finalize@plt>:
    1090:	ff 25 62 2f 00 00    	jmp    *0x2f62(%rip)        # 3ff8 <__cxa_finalize@GLIBC_2.2.5>
    1096:	66 90                	xchg   %ax,%ax

Disassembly of section .text:

00000000000010a0 <_start>:
    10a0:	f3 0f 1e fa          	endbr64 
    10a4:	31 ed                	xor    %ebp,%ebp
    10a6:	49 89 d1             	mov    %rdx,%r9
    10a9:	5e                   	pop    %rsi
    10aa:	48 89 e2             	mov    %rsp,%rdx
    10ad:	48 83 e4 f0          	and    $0xfffffffffffffff0,%rsp
    10b1:	50                   	push   %rax
    10b2:	54                   	push   %rsp
    10b3:	45 31 c0             	xor    %r8d,%r8d
    10b6:	31 c9                	xor    %ecx,%ecx
    10b8:	48 8d 3d c1 02 00 00 	lea    0x2c1(%rip),%rdi        # 1380 <main>
    10bf:	ff 15 13 2f 00 00    	call   *0x2f13(%rip)        # 3fd8 <__libc_start_main@GLIBC_2.34>
    10c5:	f4                   	hlt    
    10c6:	66 2e 0f 1f 84 00 00 	cs nopw 0x0(%rax,%rax,1)
    10cd:	00 00 00 

00000000000010d0 <deregister_tm_clones>:
    10d0:	48 8d 3d 81 2f 00 00 	lea    0x2f81(%rip),%rdi        # 4058 <__TMC_END__>
    10d7:	48 8d 05 7a 2f 00 00 	lea    0x2f7a(%rip),%rax        # 4058 <__TMC_END__>
    10de:	48 39 f8             	cmp    %rdi,%rax
    10e1:	74 15                	je     10f8 <deregister_tm_clones+0x28>
    10e3:	48 8b 05 f6 2e 00 00 	mov    0x2ef6(%rip),%rax        # 3fe0 <_ITM_deregisterTMCloneTable@Base>
    10ea:	48 85 c0             	test   %rax,%rax
    10ed:	74 09                	je     10f8 <deregister_tm_clones+0x28>
    10ef:	ff e0                	jmp    *%rax
    10f1:	0f 1f 80 00 00 00 00 	nopl   0x0(%rax)
    10f8:	c3                   	ret    
    10f9:	0f 1f 80 00 00 00 00 	nopl   0x0(%rax)

0000000000001100 <register_tm_clones>:
    1100:	48 8d 3d 51 2f 00 00 	lea    0x2f51(%rip),%rdi        # 4058 <__TMC_END__>
    1107:	48 8d 35 4a 2f 00 00 	lea    0x2f4a(%rip),%rsi        # 4058 <__TMC_END__>
    110e:	48 29 fe             	sub    %rdi,%rsi
    1111:	48 89 f0             	mov    %rsi,%rax
    1114:	48 c1 ee 3f          	shr    $0x3f,%rsi
    1118:	48 c1 f8 03          	sar    $0x3,%rax
    111c:	48 01 c6             	add    %rax,%rsi
    111f:	48 d1 fe             	sar    %rsi
    1122:	74 14                	je     1138 <register_tm_clones+0x38>
    1124:	48 8b 05 c5 2e 00 00 	mov    0x2ec5(%rip),%rax        # 3ff0 <_ITM_registerTMCloneTable@Base>
    112b:	48 85 c0             	test   %rax,%rax
    112e:	74 08                	je     1138 <register_tm_clones+0x38>
    1130:	ff e0                	jmp    *%rax
    1132:	66 0f 1f 44 00 00    	nopw   0x0(%rax,%rax,1)
    1138:	c3                   	ret    
    1139:	0f 1f 80 00 00 00 00 	nopl   0x0(%rax)

0000000000001140 <__do_global_dtors_aux>:
    1140:	f3 0f 1e fa          	endbr64 
    1144:	80 3d 0d 2f 00 00 00 	cmpb   $0x0,0x2f0d(%rip)        # 4058 <__TMC_END__>
    114b:	75 2b                	jne    1178 <__do_global_dtors_aux+0x38>
    114d:	55                   	push   %rbp
    114e:	48 83 3d a2 2e 00 00 	cmpq   $0x0,0x2ea2(%rip)        # 3ff8 <__cxa_finalize@GLIBC_2.2.5>
    1155:	00 
    1156:	48 89 e5             	mov    %rsp,%rbp
    1159:	74 0c                	je     1167 <__do_global_dtors_aux+0x27>
    115b:	48 8b 3d ee 2e 00 00 	mov    0x2eee(%rip),%rdi        # 4050 <__dso_handle>
    1162:	e8 29 ff ff ff       	call   1090 <__cxa_finalize@plt>
    1167:	e8 64 ff ff ff       	call   10d0 <deregister_tm_clones>
    116c:	c6 05 e5 2e 00 00 01 	movb   $0x1,0x2ee5(%rip)        # 4058 <__TMC_END__>
    1173:	5d                   	pop    %rbp
    1174:	c3                   	ret    
    1175:	0f 1f 00             	nopl   (%rax)
    1178:	c3                   	ret    
    1179:	0f 1f 80 00 00 00 00 	nopl   0x0(%rax)

0000000000001180 <frame_dummy>:
    1180:	f3 0f 1e fa          	endbr64 
    1184:	e9 77 ff ff ff       	jmp    1100 <register_tm_clones>
    1189:	0f 1f 80 00 00 00 00 	nopl   0x0(%rax)

0000000000001190 <counter>:
    1190:	55                   	push   %rbp
    1191:	48 89 e5             	mov    %rsp,%rbp
    1194:	48 83 ec 10          	sub    $0x10,%rsp
    1198:	48 89 7d f8          	mov    %rdi,-0x8(%rbp)
    119c:	48 8b 7d f8          	mov    -0x8(%rbp),%rdi
    11a0:	48 8d 35 5d 0e 00 00 	lea    0xe5d(%rip),%rsi        # 2004 <_IO_stdin_used+0x4>
    11a7:	e8 b4 fe ff ff       	call   1060 <fopen@plt>
    11ac:	48 89 45 f0          	mov    %rax,-0x10(%rbp)
    11b0:	48 83 7d f0 00       	cmpq   $0x0,-0x10(%rbp)
    11b5:	0f 85 17 00 00 00    	jne    11d2 <counter+0x42>
    11bb:	48 8b 75 f8          	mov    -0x8(%rbp),%rsi
    11bf:	48 8d 3d 40 0e 00 00 	lea    0xe40(%rip),%rdi        # 2006 <_IO_stdin_used+0x6>
    11c6:	b0 00                	mov    $0x0,%al
    11c8:	e8 73 fe ff ff       	call   1040 <printf@plt>
    11cd:	e9 5f 00 00 00       	jmp    1231 <counter+0xa1>
    11d2:	48 8d 05 8f 2e 00 00 	lea    0x2e8f(%rip),%rax        # 4068 <wcount>
    11d9:	48 c7 00 00 00 00 00 	movq   $0x0,(%rax)
    11e0:	48 8b 7d f0          	mov    -0x10(%rbp),%rdi
    11e4:	e8 87 00 00 00       	call   1270 <getword>
    11e9:	83 f8 00             	cmp    $0x0,%eax
    11ec:	0f 84 05 00 00 00    	je     11f7 <counter+0x67>
    11f2:	e9 e9 ff ff ff       	jmp    11e0 <counter+0x50>
    11f7:	48 8b 7d f0          	mov    -0x10(%rbp),%rdi
    11fb:	e8 30 fe ff ff       	call   1030 <fclose@plt>
    1200:	48 8b 7d f8          	mov    -0x8(%rbp),%rdi
    1204:	48 8d 05 5d 2e 00 00 	lea    0x2e5d(%rip),%rax        # 4068 <wcount>
    120b:	48 8b 30             	mov    (%rax),%rsi
    120e:	e8 2d 00 00 00       	call   1240 <report>
    1213:	48 8d 05 4e 2e 00 00 	lea    0x2e4e(%rip),%rax        # 4068 <wcount>
    121a:	48 8b 08             	mov    (%rax),%rcx
    121d:	48 8d 05 3c 2e 00 00 	lea    0x2e3c(%rip),%rax        # 4060 <total_wcount>
    1224:	48 03 08             	add    (%rax),%rcx
    1227:	48 8d 05 32 2e 00 00 	lea    0x2e32(%rip),%rax        # 4060 <total_wcount>
    122e:	48 89 08             	mov    %rcx,(%rax)
    1231:	48 83 c4 10          	add    $0x10,%rsp
    1235:	5d                   	pop    %rbp
    1236:	c3                   	ret    
    1237:	66 0f 1f 84 00 00 00 	nopw   0x0(%rax,%rax,1)
    123e:	00 00 

0000000000001240 <report>:
    1240:	55                   	push   %rbp
    1241:	48 89 e5             	mov    %rsp,%rbp
    1244:	48 83 ec 10          	sub    $0x10,%rsp
    1248:	48 89 7d f8          	mov    %rdi,-0x8(%rbp)
    124c:	48 89 75 f0          	mov    %rsi,-0x10(%rbp)
    1250:	48 8b 75 f0          	mov    -0x10(%rbp),%rsi
    1254:	48 8b 55 f8          	mov    -0x8(%rbp),%rdx
    1258:	48 8d 3d be 0d 00 00 	lea    0xdbe(%rip),%rdi        # 201d <_IO_stdin_used+0x1d>
    125f:	b0 00                	mov    $0x0,%al
    1261:	e8 da fd ff ff       	call   1040 <printf@plt>
    1266:	48 83 c4 10          	add    $0x10,%rsp
    126a:	5d                   	pop    %rbp
    126b:	c3                   	ret    
    126c:	0f 1f 40 00          	nopl   0x0(%rax)

0000000000001270 <getword>:
    1270:	55                   	push   %rbp
    1271:	48 89 e5             	mov    %rsp,%rbp
    1274:	48 83 ec 20          	sub    $0x20,%rsp
    1278:	48 89 7d f0          	mov    %rdi,-0x10(%rbp)
    127c:	c7 45 e8 00 00 00 00 	movl   $0x0,-0x18(%rbp)
    1283:	48 8b 7d f0          	mov    -0x10(%rbp),%rdi
    1287:	e8 c4 fd ff ff       	call   1050 <feof@plt>
    128c:	83 f8 00             	cmp    $0x0,%eax
    128f:	0f 84 0c 00 00 00    	je     12a1 <getword+0x31>
    1295:	c7 45 fc 00 00 00 00 	movl   $0x0,-0x4(%rbp)
    129c:	e9 97 00 00 00       	jmp    1338 <getword+0xc8>
    12a1:	e9 00 00 00 00       	jmp    12a6 <getword+0x36>
    12a6:	48 8b 7d f0          	mov    -0x10(%rbp),%rdi
    12aa:	e8 c1 fd ff ff       	call   1070 <getc@plt>
    12af:	89 45 ec             	mov    %eax,-0x14(%rbp)
    12b2:	83 f8 ff             	cmp    $0xffffffff,%eax
    12b5:	0f 84 30 00 00 00    	je     12eb <getword+0x7b>
    12bb:	8b 45 ec             	mov    -0x14(%rbp),%eax
    12be:	0f b6 f8             	movzbl %al,%edi
    12c1:	e8 8a 00 00 00       	call   1350 <isword>
    12c6:	83 f8 00             	cmp    $0x0,%eax
    12c9:	0f 84 17 00 00 00    	je     12e6 <getword+0x76>
    12cf:	48 8b 05 92 2d 00 00 	mov    0x2d92(%rip),%rax        # 4068 <wcount>
    12d6:	48 83 c0 01          	add    $0x1,%rax
    12da:	48 89 05 87 2d 00 00 	mov    %rax,0x2d87(%rip)        # 4068 <wcount>
    12e1:	e9 05 00 00 00       	jmp    12eb <getword+0x7b>
    12e6:	e9 bb ff ff ff       	jmp    12a6 <getword+0x36>
    12eb:	e9 00 00 00 00       	jmp    12f0 <getword+0x80>
    12f0:	83 7d ec ff          	cmpl   $0xffffffff,-0x14(%rbp)
    12f4:	0f 84 2f 00 00 00    	je     1329 <getword+0xb9>
    12fa:	8b 45 ec             	mov    -0x14(%rbp),%eax
    12fd:	0f b6 f8             	movzbl %al,%edi
    1300:	e8 4b 00 00 00       	call   1350 <isword>
    1305:	83 f8 00             	cmp    $0x0,%eax
    1308:	0f 85 05 00 00 00    	jne    1313 <getword+0xa3>
    130e:	e9 16 00 00 00       	jmp    1329 <getword+0xb9>
    1313:	e9 00 00 00 00       	jmp    1318 <getword+0xa8>
    1318:	48 8b 7d f0          	mov    -0x10(%rbp),%rdi
    131c:	e8 4f fd ff ff       	call   1070 <getc@plt>
    1321:	89 45 ec             	mov    %eax,-0x14(%rbp)
    1324:	e9 c7 ff ff ff       	jmp    12f0 <getword+0x80>
    1329:	83 7d ec ff          	cmpl   $0xffffffff,-0x14(%rbp)
    132d:	0f 95 c0             	setne  %al
    1330:	24 01                	and    $0x1,%al
    1332:	0f b6 c0             	movzbl %al,%eax
    1335:	89 45 fc             	mov    %eax,-0x4(%rbp)
    1338:	8b 45 fc             	mov    -0x4(%rbp),%eax
    133b:	48 83 c4 20          	add    $0x20,%rsp
    133f:	5d                   	pop    %rbp
    1340:	c3                   	ret    
    1341:	66 66 66 66 66 66 2e 	data16 data16 data16 data16 data16 cs nopw 0x0(%rax,%rax,1)
    1348:	0f 1f 84 00 00 00 00 
    134f:	00 

0000000000001350 <isword>:
    1350:	55                   	push   %rbp
    1351:	48 89 e5             	mov    %rsp,%rbp
    1354:	48 83 ec 10          	sub    $0x10,%rsp
    1358:	40 88 f8             	mov    %dil,%al
    135b:	88 45 ff             	mov    %al,-0x1(%rbp)
    135e:	e8 1d fd ff ff       	call   1080 <__ctype_b_loc@plt>
    1363:	48 8b 00             	mov    (%rax),%rax
    1366:	0f b6 4d ff          	movzbl -0x1(%rbp),%ecx
    136a:	48 63 c9             	movslq %ecx,%rcx
    136d:	0f b7 04 48          	movzwl (%rax,%rcx,2),%eax
    1371:	25 00 04 00 00       	and    $0x400,%eax
    1376:	48 83 c4 10          	add    $0x10,%rsp
    137a:	5d                   	pop    %rbp
    137b:	c3                   	ret    
    137c:	0f 1f 40 00          	nopl   0x0(%rax)

0000000000001380 <main>:
    1380:	55                   	push   %rbp
    1381:	48 89 e5             	mov    %rsp,%rbp
    1384:	48 83 ec 20          	sub    $0x20,%rsp
    1388:	c7 45 fc 00 00 00 00 	movl   $0x0,-0x4(%rbp)
    138f:	89 7d f8             	mov    %edi,-0x8(%rbp)
    1392:	48 89 75 f0          	mov    %rsi,-0x10(%rbp)
    1396:	83 7d f8 02          	cmpl   $0x2,-0x8(%rbp)
    139a:	0f 8d 1a 00 00 00    	jge    13ba <main+0x3a>
    13a0:	48 8d 3d 7f 0c 00 00 	lea    0xc7f(%rip),%rdi        # 2026 <_IO_stdin_used+0x26>
    13a7:	b0 00                	mov    $0x0,%al
    13a9:	e8 92 fc ff ff       	call   1040 <printf@plt>
    13ae:	c7 45 fc ff ff ff ff 	movl   $0xffffffff,-0x4(%rbp)
    13b5:	e9 56 00 00 00       	jmp    1410 <main+0x90>
    13ba:	c7 45 ec 01 00 00 00 	movl   $0x1,-0x14(%rbp)
    13c1:	8b 45 ec             	mov    -0x14(%rbp),%eax
    13c4:	3b 45 f8             	cmp    -0x8(%rbp),%eax
    13c7:	0f 8d 1f 00 00 00    	jge    13ec <main+0x6c>
    13cd:	48 8b 45 f0          	mov    -0x10(%rbp),%rax
    13d1:	48 63 4d ec          	movslq -0x14(%rbp),%rcx
    13d5:	48 8b 3c c8          	mov    (%rax,%rcx,8),%rdi
    13d9:	e8 b2 fd ff ff       	call   1190 <counter>
    13de:	8b 45 ec             	mov    -0x14(%rbp),%eax
    13e1:	83 c0 01             	add    $0x1,%eax
    13e4:	89 45 ec             	mov    %eax,-0x14(%rbp)
    13e7:	e9 d5 ff ff ff       	jmp    13c1 <main+0x41>
    13ec:	83 7d f8 02          	cmpl   $0x2,-0x8(%rbp)
    13f0:	0f 8e 13 00 00 00    	jle    1409 <main+0x89>
    13f6:	48 8b 35 63 2c 00 00 	mov    0x2c63(%rip),%rsi        # 4060 <total_wcount>
    13fd:	48 8d 3d 3b 0c 00 00 	lea    0xc3b(%rip),%rdi        # 203f <_IO_stdin_used+0x3f>
    1404:	e8 37 fe ff ff       	call   1240 <report>
    1409:	c7 45 fc 00 00 00 00 	movl   $0x0,-0x4(%rbp)
    1410:	8b 45 fc             	mov    -0x4(%rbp),%eax
    1413:	48 83 c4 20          	add    $0x20,%rsp
    1417:	5d                   	pop    %rbp
    1418:	c3                   	ret    

Disassembly of section .fini:

000000000000141c <_fini>:
    141c:	f3 0f 1e fa          	endbr64 
    1420:	48 83 ec 08          	sub    $0x8,%rsp
    1424:	48 83 c4 08          	add    $0x8,%rsp
    1428:	c3                   	ret    
